; Function Attrs: mustprogress uwtable
define internal fastcc void @_ZN4ncnnL44convolution_im2col_gemm_get_optimal_tile_mnkEiiiRiS0_S0_i(i32 noundef %0, i32 noundef %1, i32 noundef %2, ptr noundef nonnull align 4 captures(none) dereferenceable(4) initializes((0, 4)) %3, ptr noundef nonnull writeonly align 4 captures(none) dereferenceable(4) %4, ptr noundef nonnull align 4 captures(none) dereferenceable(4) initializes((0, 4)) %5, i32 noundef %6) unnamed_addr #2 {
  %8 = tail call noundef i32 @_ZN4ncnn25get_cpu_level2_cache_sizeEv()
  %9 = ashr i32 %8, 2
  %10 = icmp eq i32 %6, 0
  br i1 %10, label %11, label %13

11:                                               ; preds = %7
  %12 = tail call noundef i32 @_ZN4ncnn26get_physical_big_cpu_countEv()
  br label %13

13:                                               ; preds = %11, %7
  %.0120 = phi i32 [ %12, %11 ], [ %6, %7 ]
  %14 = add nsw i32 %9, -32
  %15 = sdiv i32 %14, 64
  %16 = shl nsw i32 %15, 3
  %.sroa.speculated110 = tail call i32 @llvm.smax.i32(i32 %16, i32 8)
  %17 = add i32 %2, -1
  %18 = add i32 %17, %.sroa.speculated110
  %19 = sdiv i32 %18, %.sroa.speculated110
  %20 = add i32 %17, %19
  %21 = sdiv i32 %20, %19
  %22 = add nsw i32 %21, 7
  %23 = sdiv i32 %22, 8
  %24 = shl nsw i32 %23, 3
  %.sroa.speculated105 = tail call i32 @llvm.smin.i32(i32 %24, i32 %.sroa.speculated110)
  store i32 %.sroa.speculated105, ptr %5, align 4, !tbaa !75
  %25 = add nsw i32 %0, 31
  %26 = sdiv i32 %25, 32
  %27 = add i32 %0, -1
  %28 = add i32 %27, %26
  %29 = sdiv i32 %28, %26
  %30 = add nsw i32 %29, 7
  %31 = sdiv i32 %30, 8
  %32 = shl nsw i32 %31, 3
  %.sroa.speculated98 = tail call i32 @llvm.smax.i32(i32 %32, i32 8)
  store i32 %.sroa.speculated98, ptr %3, align 4, !tbaa !75
  %33 = tail call noundef i32 @_ZN4ncnn22get_physical_cpu_countEv()
  %.sroa.speculated93 = tail call i32 @llvm.smin.i32(i32 %33, i32 %.0120)
  %34 = load i32, ptr %3, align 4, !tbaa !75
  %35 = mul nsw i32 %34, %.sroa.speculated93
  %36 = add i32 %27, %35
  %37 = sdiv i32 %36, %35
  %38 = add i32 %27, %37
  %39 = sdiv i32 %38, %37
  %40 = add nsw i32 %39, 7
  %41 = sdiv i32 %40, 8
  %42 = shl nsw i32 %41, 3
  %.sroa.speculated88 = tail call i32 @llvm.smin.i32(i32 %42, i32 %35)
  %43 = icmp sgt i32 %.0120, 1
  br i1 %43, label %44, label %48

44:                                               ; preds = %13
  %45 = sdiv i32 %.sroa.speculated88, %.0120
  %.sroa.speculated76 = tail call i32 @llvm.smax.i32(i32 %45, i32 1)
  %46 = add nuw nsw i32 %.sroa.speculated76, 7
  %47 = and i32 %46, 2147483640
  %.sroa.speculated83 = tail call i32 @llvm.smin.i32(i32 %47, i32 %.sroa.speculated88)
  br label %48

48:                                               ; preds = %44, %13
  %49 = phi i32 [ %.sroa.speculated83, %44 ], [ %.sroa.speculated88, %13 ]
  store i32 %49, ptr %3, align 4, !tbaa !75
  %50 = icmp sgt i32 %1, 0
  br i1 %50, label %51, label %66

51:                                               ; preds = %48
  %52 = load i32, ptr %5, align 4, !tbaa !75
  %.not = icmp slt i32 %52, %2
  %53 = mul nsw i32 %49, %52
  %54 = sub nsw i32 %9, %53
  %55 = select i1 %.not, i32 %49, i32 0
  %.sink = add nsw i32 %52, %55
  %56 = sdiv i32 %54, %.sink
  %57 = sdiv i32 %56, 4
  %58 = shl nsw i32 %57, 2
  %.sroa.speculated69 = tail call i32 @llvm.smax.i32(i32 %58, i32 4)
  %59 = add nsw i32 %1, -1
  %60 = add nuw i32 %59, %.sroa.speculated69
  %61 = udiv i32 %60, %.sroa.speculated69
  %62 = add nuw i32 %59, %61
  %63 = udiv i32 %62, %61
  %64 = add nuw nsw i32 %63, 3
  %65 = and i32 %64, -4
  %.sroa.speculated64 = tail call i32 @llvm.umin.i32(i32 %65, i32 %.sroa.speculated69)
  %.sroa.speculated = tail call i32 @llvm.umax.i32(i32 %.sroa.speculated64, i32 4)
  store i32 %.sroa.speculated, ptr %4, align 4, !tbaa !75
  br label %66

66:                                               ; preds = %51, %48
  ret void
}